
part2/ori.elf:     file format elf32-littleriscv


Disassembly of section .text:

00000200 <_start>:
 200:	00000093          	li	ra,0
 204:	00000113          	li	sp,0
 208:	00000193          	li	gp,0
 20c:	00000213          	li	tp,0
 210:	00000293          	li	t0,0
 214:	00000313          	li	t1,0
 218:	00000393          	li	t2,0
 21c:	00000413          	li	s0,0
 220:	00000493          	li	s1,0
 224:	00000513          	li	a0,0
 228:	00000593          	li	a1,0
 22c:	00000613          	li	a2,0
 230:	00000693          	li	a3,0
 234:	00000713          	li	a4,0
 238:	00000793          	li	a5,0
 23c:	00000813          	li	a6,0
 240:	00000893          	li	a7,0
 244:	00000913          	li	s2,0
 248:	00000993          	li	s3,0
 24c:	00000a13          	li	s4,0
 250:	00000a93          	li	s5,0
 254:	00000b13          	li	s6,0
 258:	00000b93          	li	s7,0
 25c:	00000c13          	li	s8,0
 260:	00000c93          	li	s9,0
 264:	00000d13          	li	s10,0
 268:	00000d93          	li	s11,0
 26c:	00000e13          	li	t3,0
 270:	00000e93          	li	t4,0
 274:	00000f13          	li	t5,0
 278:	00000f93          	li	t6,0

0000027c <test_2>:
 27c:	ff0100b7          	lui	ra,0xff010
 280:	f0008093          	addi	ra,ra,-256 # ff00ff00 <begin_signature+0xff00fb70>
 284:	f0f0e713          	ori	a4,ra,-241
 288:	f0f00393          	li	t2,-241
 28c:	00200193          	li	gp,2
 290:	06771c63          	bne	a4,t2,308 <fail>

00000294 <test_3>:
 294:	0ff010b7          	lui	ra,0xff01
 298:	ff008093          	addi	ra,ra,-16 # ff00ff0 <begin_signature+0xff00c60>
 29c:	0f00e713          	ori	a4,ra,240
 2a0:	0ff013b7          	lui	t2,0xff01
 2a4:	ff038393          	addi	t2,t2,-16 # ff00ff0 <begin_signature+0xff00c60>
 2a8:	00300193          	li	gp,3
 2ac:	04771e63          	bne	a4,t2,308 <fail>

000002b0 <test_4>:
 2b0:	00ff00b7          	lui	ra,0xff0
 2b4:	0ff08093          	addi	ra,ra,255 # ff00ff <begin_signature+0xfefd6f>
 2b8:	70f0e713          	ori	a4,ra,1807
 2bc:	00ff03b7          	lui	t2,0xff0
 2c0:	7ff38393          	addi	t2,t2,2047 # ff07ff <begin_signature+0xff046f>
 2c4:	00400193          	li	gp,4
 2c8:	04771063          	bne	a4,t2,308 <fail>

000002cc <test_5>:
 2cc:	f00ff0b7          	lui	ra,0xf00ff
 2d0:	00f08093          	addi	ra,ra,15 # f00ff00f <begin_signature+0xf00fec7f>
 2d4:	0f00e713          	ori	a4,ra,240
 2d8:	f00ff3b7          	lui	t2,0xf00ff
 2dc:	0ff38393          	addi	t2,t2,255 # f00ff0ff <begin_signature+0xf00fed6f>
 2e0:	00500193          	li	gp,5
 2e4:	02771263          	bne	a4,t2,308 <fail>

000002e8 <test_6>:
 2e8:	ff0100b7          	lui	ra,0xff010
 2ec:	f0008093          	addi	ra,ra,-256 # ff00ff00 <begin_signature+0xff00fb70>
 2f0:	0f00e093          	ori	ra,ra,240
 2f4:	ff0103b7          	lui	t2,0xff010
 2f8:	ff038393          	addi	t2,t2,-16 # ff00fff0 <begin_signature+0xff00fc60>
 2fc:	00600193          	li	gp,6
 300:	00709463          	bne	ra,t2,308 <fail>
 304:	00301e63          	bne	zero,gp,320 <pass>

00000308 <fail>:
 308:	00000193          	li	gp,0
 30c:	00000013          	nop
 310:	00000013          	nop
 314:	00000013          	nop
 318:	00000013          	nop
 31c:	0180006f          	j	334 <end>

00000320 <pass>:
 320:	00100193          	li	gp,1
 324:	00000013          	nop
 328:	00000013          	nop
 32c:	00000013          	nop
 330:	00000013          	nop

00000334 <end>:
 334:	00000013          	nop
 338:	00000013          	nop
