
part2/srli.elf:     file format elf32-littleriscv


Disassembly of section .text:

00000200 <_start>:
 200:	00000093          	li	ra,0
 204:	00000113          	li	sp,0
 208:	00000193          	li	gp,0
 20c:	00000213          	li	tp,0
 210:	00000293          	li	t0,0
 214:	00000313          	li	t1,0
 218:	00000393          	li	t2,0
 21c:	00000413          	li	s0,0
 220:	00000493          	li	s1,0
 224:	00000513          	li	a0,0
 228:	00000593          	li	a1,0
 22c:	00000613          	li	a2,0
 230:	00000693          	li	a3,0
 234:	00000713          	li	a4,0
 238:	00000793          	li	a5,0
 23c:	00000813          	li	a6,0
 240:	00000893          	li	a7,0
 244:	00000913          	li	s2,0
 248:	00000993          	li	s3,0
 24c:	00000a13          	li	s4,0
 250:	00000a93          	li	s5,0
 254:	00000b13          	li	s6,0
 258:	00000b93          	li	s7,0
 25c:	00000c13          	li	s8,0
 260:	00000c93          	li	s9,0
 264:	00000d13          	li	s10,0
 268:	00000d93          	li	s11,0
 26c:	00000e13          	li	t3,0
 270:	00000e93          	li	t4,0
 274:	00000f13          	li	t5,0
 278:	00000f93          	li	t6,0

0000027c <test_2>:
 27c:	800000b7          	lui	ra,0x80000
 280:	0000d713          	srli	a4,ra,0x0
 284:	800003b7          	lui	t2,0x80000
 288:	00200193          	li	gp,2
 28c:	0a771e63          	bne	a4,t2,348 <fail>

00000290 <test_3>:
 290:	fff00093          	li	ra,-1
 294:	0000d713          	srli	a4,ra,0x0
 298:	fff00393          	li	t2,-1
 29c:	00300193          	li	gp,3
 2a0:	0a771463          	bne	a4,t2,348 <fail>

000002a4 <test_4>:
 2a4:	212120b7          	lui	ra,0x21212
 2a8:	12108093          	addi	ra,ra,289 # 21212121 <begin_signature+0x21211d51>
 2ac:	0000d713          	srli	a4,ra,0x0
 2b0:	212123b7          	lui	t2,0x21212
 2b4:	12138393          	addi	t2,t2,289 # 21212121 <begin_signature+0x21211d51>
 2b8:	00400193          	li	gp,4
 2bc:	08771663          	bne	a4,t2,348 <fail>

000002c0 <test_5>:
 2c0:	800000b7          	lui	ra,0x80000
 2c4:	0070d093          	srli	ra,ra,0x7
 2c8:	010003b7          	lui	t2,0x1000
 2cc:	00500193          	li	gp,5
 2d0:	06709c63          	bne	ra,t2,348 <fail>

000002d4 <test_6>:
 2d4:	00000213          	li	tp,0
 2d8:	800000b7          	lui	ra,0x80000
 2dc:	0070d713          	srli	a4,ra,0x7
 2e0:	00070313          	mv	t1,a4
 2e4:	00120213          	addi	tp,tp,1 # 1 <_start-0x1ff>
 2e8:	00200293          	li	t0,2
 2ec:	fe5216e3          	bne	tp,t0,2d8 <test_6+0x4>
 2f0:	010003b7          	lui	t2,0x1000
 2f4:	00600193          	li	gp,6
 2f8:	04731863          	bne	t1,t2,348 <fail>

000002fc <test_7>:
 2fc:	00000213          	li	tp,0
 300:	800000b7          	lui	ra,0x80000
 304:	0070d713          	srli	a4,ra,0x7
 308:	00120213          	addi	tp,tp,1 # 1 <_start-0x1ff>
 30c:	00200293          	li	t0,2
 310:	fe5218e3          	bne	tp,t0,300 <test_7+0x4>
 314:	010003b7          	lui	t2,0x1000
 318:	00700193          	li	gp,7
 31c:	02771663          	bne	a4,t2,348 <fail>

00000320 <test_8>:
 320:	00405093          	srli	ra,zero,0x4
 324:	00000393          	li	t2,0
 328:	00800193          	li	gp,8
 32c:	00709e63          	bne	ra,t2,348 <fail>

00000330 <test_9>:
 330:	02100093          	li	ra,33
 334:	00a0d013          	srli	zero,ra,0xa
 338:	00000393          	li	t2,0
 33c:	00900193          	li	gp,9
 340:	00701463          	bne	zero,t2,348 <fail>
 344:	00301e63          	bne	zero,gp,360 <pass>

00000348 <fail>:
 348:	00000193          	li	gp,0
 34c:	00000013          	nop
 350:	00000013          	nop
 354:	00000013          	nop
 358:	00000013          	nop
 35c:	0180006f          	j	374 <end>

00000360 <pass>:
 360:	00100193          	li	gp,1
 364:	00000013          	nop
 368:	00000013          	nop
 36c:	00000013          	nop
 370:	00000013          	nop

00000374 <end>:
 374:	00000013          	nop
 378:	00000013          	nop
