
part2/slt.elf:     file format elf32-littleriscv


Disassembly of section .text:

00000200 <_start>:
 200:	00000093          	li	ra,0
 204:	00000113          	li	sp,0
 208:	00000193          	li	gp,0
 20c:	00000213          	li	tp,0
 210:	00000293          	li	t0,0
 214:	00000313          	li	t1,0
 218:	00000393          	li	t2,0
 21c:	00000413          	li	s0,0
 220:	00000493          	li	s1,0
 224:	00000513          	li	a0,0
 228:	00000593          	li	a1,0
 22c:	00000613          	li	a2,0
 230:	00000693          	li	a3,0
 234:	00000713          	li	a4,0
 238:	00000793          	li	a5,0
 23c:	00000813          	li	a6,0
 240:	00000893          	li	a7,0
 244:	00000913          	li	s2,0
 248:	00000993          	li	s3,0
 24c:	00000a13          	li	s4,0
 250:	00000a93          	li	s5,0
 254:	00000b13          	li	s6,0
 258:	00000b93          	li	s7,0
 25c:	00000c13          	li	s8,0
 260:	00000c93          	li	s9,0
 264:	00000d13          	li	s10,0
 268:	00000d93          	li	s11,0
 26c:	00000e13          	li	t3,0
 270:	00000e93          	li	t4,0
 274:	00000f13          	li	t5,0
 278:	00000f93          	li	t6,0

0000027c <test_2>:
 27c:	00000093          	li	ra,0
 280:	fff00113          	li	sp,-1
 284:	0020a733          	slt	a4,ra,sp
 288:	00000393          	li	t2,0
 28c:	00200193          	li	gp,2
 290:	14771c63          	bne	a4,t2,3e8 <fail>

00000294 <test_3>:
 294:	fff00093          	li	ra,-1
 298:	00100113          	li	sp,1
 29c:	0020a733          	slt	a4,ra,sp
 2a0:	00100393          	li	t2,1
 2a4:	00300193          	li	gp,3
 2a8:	14771063          	bne	a4,t2,3e8 <fail>

000002ac <test_4>:
 2ac:	fff00093          	li	ra,-1
 2b0:	fff00113          	li	sp,-1
 2b4:	0020a733          	slt	a4,ra,sp
 2b8:	00000393          	li	t2,0
 2bc:	00400193          	li	gp,4
 2c0:	12771463          	bne	a4,t2,3e8 <fail>

000002c4 <test_5>:
 2c4:	00e00093          	li	ra,14
 2c8:	00d00113          	li	sp,13
 2cc:	0020a0b3          	slt	ra,ra,sp
 2d0:	00000393          	li	t2,0
 2d4:	00500193          	li	gp,5
 2d8:	10709863          	bne	ra,t2,3e8 <fail>

000002dc <test_6>:
 2dc:	00b00093          	li	ra,11
 2e0:	00d00113          	li	sp,13
 2e4:	0020a133          	slt	sp,ra,sp
 2e8:	00100393          	li	t2,1
 2ec:	00600193          	li	gp,6
 2f0:	0e711c63          	bne	sp,t2,3e8 <fail>

000002f4 <test_7>:
 2f4:	00d00093          	li	ra,13
 2f8:	0010a0b3          	slt	ra,ra,ra
 2fc:	00000393          	li	t2,0
 300:	00700193          	li	gp,7
 304:	0e709263          	bne	ra,t2,3e8 <fail>

00000308 <test_8>:
 308:	00000213          	li	tp,0
 30c:	00c00093          	li	ra,12
 310:	00d00113          	li	sp,13
 314:	0020a733          	slt	a4,ra,sp
 318:	00000013          	nop
 31c:	00000013          	nop
 320:	00070313          	mv	t1,a4
 324:	00120213          	addi	tp,tp,1 # 1 <_start-0x1ff>
 328:	00200293          	li	t0,2
 32c:	fe5210e3          	bne	tp,t0,30c <test_8+0x4>
 330:	00100393          	li	t2,1
 334:	00800193          	li	gp,8
 338:	0a731863          	bne	t1,t2,3e8 <fail>

0000033c <test_9>:
 33c:	00000213          	li	tp,0
 340:	00e00093          	li	ra,14
 344:	00d00113          	li	sp,13
 348:	0020a733          	slt	a4,ra,sp
 34c:	00120213          	addi	tp,tp,1 # 1 <_start-0x1ff>
 350:	00200293          	li	t0,2
 354:	fe5216e3          	bne	tp,t0,340 <test_9+0x4>
 358:	00000393          	li	t2,0
 35c:	00900193          	li	gp,9
 360:	08771463          	bne	a4,t2,3e8 <fail>

00000364 <test_10>:
 364:	00000213          	li	tp,0
 368:	00d00113          	li	sp,13
 36c:	00000013          	nop
 370:	00000013          	nop
 374:	00600093          	li	ra,6
 378:	0020a733          	slt	a4,ra,sp
 37c:	00120213          	addi	tp,tp,1 # 1 <_start-0x1ff>
 380:	00200293          	li	t0,2
 384:	fe5212e3          	bne	tp,t0,368 <test_10+0x4>
 388:	00100393          	li	t2,1
 38c:	00a00193          	li	gp,10
 390:	04771c63          	bne	a4,t2,3e8 <fail>

00000394 <test_11>:
 394:	fff00093          	li	ra,-1
 398:	00102133          	sgtz	sp,ra
 39c:	00000393          	li	t2,0
 3a0:	00b00193          	li	gp,11
 3a4:	04711263          	bne	sp,t2,3e8 <fail>

000003a8 <test_12>:
 3a8:	fff00093          	li	ra,-1
 3ac:	0000a133          	sltz	sp,ra
 3b0:	00100393          	li	t2,1
 3b4:	00c00193          	li	gp,12
 3b8:	02711863          	bne	sp,t2,3e8 <fail>

000003bc <test_13>:
 3bc:	000020b3          	sltz	ra,zero
 3c0:	00000393          	li	t2,0
 3c4:	00d00193          	li	gp,13
 3c8:	02709063          	bne	ra,t2,3e8 <fail>

000003cc <test_14>:
 3cc:	01000093          	li	ra,16
 3d0:	01e00113          	li	sp,30
 3d4:	0020a033          	slt	zero,ra,sp
 3d8:	00000393          	li	t2,0
 3dc:	00e00193          	li	gp,14
 3e0:	00701463          	bne	zero,t2,3e8 <fail>
 3e4:	00301e63          	bne	zero,gp,400 <pass>

000003e8 <fail>:
 3e8:	00000193          	li	gp,0
 3ec:	00000013          	nop
 3f0:	00000013          	nop
 3f4:	00000013          	nop
 3f8:	00000013          	nop
 3fc:	0180006f          	j	414 <end>

00000400 <pass>:
 400:	00100193          	li	gp,1
 404:	00000013          	nop
 408:	00000013          	nop
 40c:	00000013          	nop
 410:	00000013          	nop

00000414 <end>:
 414:	00000013          	nop
 418:	00000013          	nop
