
part2/sltiu.elf:     file format elf32-littleriscv


Disassembly of section .text:

00000200 <_start>:
 200:	00000093          	li	ra,0
 204:	00000113          	li	sp,0
 208:	00000193          	li	gp,0
 20c:	00000213          	li	tp,0
 210:	00000293          	li	t0,0
 214:	00000313          	li	t1,0
 218:	00000393          	li	t2,0
 21c:	00000413          	li	s0,0
 220:	00000493          	li	s1,0
 224:	00000513          	li	a0,0
 228:	00000593          	li	a1,0
 22c:	00000613          	li	a2,0
 230:	00000693          	li	a3,0
 234:	00000713          	li	a4,0
 238:	00000793          	li	a5,0
 23c:	00000813          	li	a6,0
 240:	00000893          	li	a7,0
 244:	00000913          	li	s2,0
 248:	00000993          	li	s3,0
 24c:	00000a13          	li	s4,0
 250:	00000a93          	li	s5,0
 254:	00000b13          	li	s6,0
 258:	00000b93          	li	s7,0
 25c:	00000c13          	li	s8,0
 260:	00000c93          	li	s9,0
 264:	00000d13          	li	s10,0
 268:	00000d93          	li	s11,0
 26c:	00000e13          	li	t3,0
 270:	00000e93          	li	t4,0
 274:	00000f13          	li	t5,0
 278:	00000f93          	li	t6,0

0000027c <test_2>:
 27c:	00000093          	li	ra,0
 280:	fff0b713          	sltiu	a4,ra,-1
 284:	00100393          	li	t2,1
 288:	00200193          	li	gp,2
 28c:	0c771063          	bne	a4,t2,34c <fail>

00000290 <test_3>:
 290:	fff00093          	li	ra,-1
 294:	0010b713          	seqz	a4,ra
 298:	00000393          	li	t2,0
 29c:	00300193          	li	gp,3
 2a0:	0a771663          	bne	a4,t2,34c <fail>

000002a4 <test_4>:
 2a4:	fff00093          	li	ra,-1
 2a8:	fff0b713          	sltiu	a4,ra,-1
 2ac:	00000393          	li	t2,0
 2b0:	00400193          	li	gp,4
 2b4:	08771c63          	bne	a4,t2,34c <fail>

000002b8 <test_5>:
 2b8:	00b00093          	li	ra,11
 2bc:	00d0b093          	sltiu	ra,ra,13
 2c0:	00100393          	li	t2,1
 2c4:	00500193          	li	gp,5
 2c8:	08709263          	bne	ra,t2,34c <fail>

000002cc <test_6>:
 2cc:	00000213          	li	tp,0
 2d0:	00f00093          	li	ra,15
 2d4:	00a0b713          	sltiu	a4,ra,10
 2d8:	00070313          	mv	t1,a4
 2dc:	00120213          	addi	tp,tp,1 # 1 <_start-0x1ff>
 2e0:	00200293          	li	t0,2
 2e4:	fe5216e3          	bne	tp,t0,2d0 <test_6+0x4>
 2e8:	00000393          	li	t2,0
 2ec:	00600193          	li	gp,6
 2f0:	04731e63          	bne	t1,t2,34c <fail>

000002f4 <test_7>:
 2f4:	00000213          	li	tp,0
 2f8:	00c00093          	li	ra,12
 2fc:	00000013          	nop
 300:	00000013          	nop
 304:	00e0b713          	sltiu	a4,ra,14
 308:	00120213          	addi	tp,tp,1 # 1 <_start-0x1ff>
 30c:	00200293          	li	t0,2
 310:	fe5214e3          	bne	tp,t0,2f8 <test_7+0x4>
 314:	00100393          	li	t2,1
 318:	00700193          	li	gp,7
 31c:	02771863          	bne	a4,t2,34c <fail>

00000320 <test_8>:
 320:	fff03093          	sltiu	ra,zero,-1
 324:	00100393          	li	t2,1
 328:	00800193          	li	gp,8
 32c:	02709063          	bne	ra,t2,34c <fail>

00000330 <test_9>:
 330:	00ff00b7          	lui	ra,0xff0
 334:	0ff08093          	addi	ra,ra,255 # ff00ff <begin_signature+0xfefd2f>
 338:	fff0b013          	sltiu	zero,ra,-1
 33c:	00000393          	li	t2,0
 340:	00900193          	li	gp,9
 344:	00701463          	bne	zero,t2,34c <fail>
 348:	00301e63          	bne	zero,gp,364 <pass>

0000034c <fail>:
 34c:	00000193          	li	gp,0
 350:	00000013          	nop
 354:	00000013          	nop
 358:	00000013          	nop
 35c:	00000013          	nop
 360:	0180006f          	j	378 <end>

00000364 <pass>:
 364:	00100193          	li	gp,1
 368:	00000013          	nop
 36c:	00000013          	nop
 370:	00000013          	nop
 374:	00000013          	nop

00000378 <end>:
 378:	00000013          	nop
 37c:	00000013          	nop
